; Function Attrs: mustprogress nounwind uwtable
define void @_ZN8WasmEdge4Host4WASI11TimerHolder5resetEv(ptr noundef nonnull align 8 captures(none) dereferenceable(16) %0) local_unnamed_addr #0 align 2 {
  %2 = getelementptr inbounds nuw i8, ptr %0, i64 8
  %3 = load i8, ptr %2, align 8
  %4 = trunc i8 %3 to i1
  br i1 %4, label %5, label %_ZNSt8optionalIPvE5resetEv.exit

5:                                                ; preds = %1
  %6 = load ptr, ptr %0, align 8
  %7 = tail call i32 @timer_delete(ptr noundef %6) #24
  %8 = load i8, ptr %2, align 8
  %9 = trunc i8 %8 to i1
  br i1 %9, label %10, label %_ZNSt8optionalIPvE5resetEv.exit

10:                                               ; preds = %5
  store i8 0, ptr %2, align 8
  br label %_ZNSt8optionalIPvE5resetEv.exit

_ZNSt8optionalIPvE5resetEv.exit:                  ; preds = %10, %5, %1
  ret void
}